target datalayout = "e-m:e-p270:32:32-p271:32:32-p272:64:64-i64:64-i128:128-f80:128-n8:16:32:64-S128"
target triple = "x86_64-pc-linux-gnu"

@.str.25 = private unnamed_addr constant [10 x i8] c"index.php\00", align 1
@.str.26 = private unnamed_addr constant [103 x i8] c"Illegal filename passed in for stub creation, was %zd characters long, and only 400 or less is allowed\00", align 1
@.str.27 = private unnamed_addr constant [107 x i8] c"Illegal web filename passed in for stub creation, was %zd characters long, and only 400 or less is allowed\00", align 1
@phar_get_stub.newstub0 = internal constant [16 x i8] c"<?php\0A\0A$web = '\00", align 16
@phar_get_stub.newstub2 = internal constant [16 x i8] c"';\0Aconst LEN = \00", align 16
@.str.188 = private unnamed_addr constant [19 x i8] c"%s%s%s%s%s%s%d%s%s\00", align 1

; Function Attrs: nounwind uwtable
define internal ptr @phar_get_stub(ptr noundef %0, ptr noundef %1, i32 noundef %2, i32 noundef %3) #0 {
  %5 = alloca ptr, align 8
  %6 = alloca ptr, align 8
  %7 = alloca i32, align 4
  %8 = alloca i32, align 4
  store ptr %0, ptr %5, align 8
  store ptr %1, ptr %6, align 8
  store i32 %2, ptr %7, align 4
  store i32 %3, ptr %8, align 4
  %9 = load i32, ptr %7, align 4
  %10 = load i32, ptr %8, align 4
  %11 = add nsw i32 %9, %10
  %12 = add nsw i32 %11, 6623
  %13 = sext i32 %12 to i64
  %14 = load ptr, ptr %6, align 8
  %15 = load ptr, ptr %5, align 8
  %16 = load i32, ptr %7, align 4
  %17 = load i32, ptr %8, align 4
  %18 = add nsw i32 %16, %17
  %19 = add nsw i32 %18, 6623
  %20 = call ptr (i64, ptr, ...) @zend_strpprintf(i64 noundef %13, ptr noundef @.str.188, ptr noundef @phar_get_stub.newstub0, ptr noundef %14, ptr noundef @phar_get_stub.newstub1_0, ptr noundef @phar_get_stub.newstub1_1, ptr noundef %15, ptr noundef @phar_get_stub.newstub2, i32 noundef %19, ptr noundef @phar_get_stub.newstub3_0, ptr noundef @phar_get_stub.newstub3_1)
  ret ptr %20
}

; Function Attrs: nounwind uwtable
define hidden ptr @phar_create_default_stub(ptr noundef %0, ptr noundef %1, ptr noundef %2) #0 {
  %4 = alloca ptr, align 8
  %5 = alloca ptr, align 8
  %6 = alloca ptr, align 8
  %7 = alloca ptr, align 8
  %8 = alloca i64, align 8
  %9 = alloca i64, align 8
  store ptr %0, ptr %5, align 8
  store ptr %1, ptr %6, align 8
  store ptr %2, ptr %7, align 8
  %10 = load ptr, ptr %7, align 8
  %11 = icmp ne ptr %10, null
  br i1 %11, label %12, label %14

12:                                               ; preds = %3
  %13 = load ptr, ptr %7, align 8
  store ptr null, ptr %13, align 8
  br label %14

14:                                               ; preds = %12, %3
  %15 = load ptr, ptr %5, align 8
  %16 = icmp ne ptr %15, null
  br i1 %16, label %18, label %17

17:                                               ; preds = %14
  store ptr @.str.25, ptr %5, align 8
  br label %18

18:                                               ; preds = %17, %14
  %19 = load ptr, ptr %6, align 8
  %20 = icmp ne ptr %19, null
  br i1 %20, label %22, label %21

21:                                               ; preds = %18
  store ptr @.str.25, ptr %6, align 8
  br label %22

22:                                               ; preds = %21, %18
  %23 = load ptr, ptr %5, align 8
  %24 = call i64 @strlen(ptr noundef %23) #14
  store i64 %24, ptr %8, align 8
  %25 = load ptr, ptr %6, align 8
  %26 = call i64 @strlen(ptr noundef %25) #14
  store i64 %26, ptr %9, align 8
  %27 = load i64, ptr %8, align 8
  %28 = icmp ugt i64 %27, 400
  br i1 %28, label %29, label %37

29:                                               ; preds = %22
  %30 = load ptr, ptr %7, align 8
  %31 = icmp ne ptr %30, null
  br i1 %31, label %32, label %36

32:                                               ; preds = %29
  %33 = load ptr, ptr %7, align 8
  %34 = load i64, ptr %8, align 8
  %35 = call i64 (ptr, i64, ptr, ...) @zend_spprintf(ptr noundef %33, i64 noundef 0, ptr noundef @.str.26, i64 noundef %34)
  store ptr null, ptr %4, align 8
  br label %58

36:                                               ; preds = %29
  br label %37

37:                                               ; preds = %36, %22
  %38 = load i64, ptr %9, align 8
  %39 = icmp ugt i64 %38, 400
  br i1 %39, label %40, label %48

40:                                               ; preds = %37
  %41 = load ptr, ptr %7, align 8
  %42 = icmp ne ptr %41, null
  br i1 %42, label %43, label %47

43:                                               ; preds = %40
  %44 = load ptr, ptr %7, align 8
  %45 = load i64, ptr %9, align 8
  %46 = call i64 (ptr, i64, ptr, ...) @zend_spprintf(ptr noundef %44, i64 noundef 0, ptr noundef @.str.27, i64 noundef %45)
  store ptr null, ptr %4, align 8
  br label %58

47:                                               ; preds = %40
  br label %48

48:                                               ; preds = %47, %37
  %49 = load ptr, ptr %5, align 8
  %50 = load ptr, ptr %6, align 8
  %51 = load i64, ptr %8, align 8
  %52 = add i64 %51, 1
  %53 = trunc i64 %52 to i32
  %54 = load i64, ptr %9, align 8
  %55 = add i64 %54, 1
  %56 = trunc i64 %55 to i32
  %57 = call ptr @phar_get_stub(ptr noundef %49, ptr noundef %50, i32 noundef %53, i32 noundef %56)
  store ptr %57, ptr %4, align 8
  br label %58

58:                                               ; preds = %48, %43, %32
  %59 = load ptr, ptr %4, align 8
  ret ptr %59
}