; Function Attrs: nounwind uwtable
define hidden ptr @phar_create_default_stub(ptr noundef %0, ptr noundef %1, ptr noundef %2) local_unnamed_addr #0 {
  %4 = icmp ne ptr %2, null
  br i1 %4, label %5, label %6

5:                                                ; preds = %3
  store ptr null, ptr %2, align 8
  br label %6

6:                                                ; preds = %5, %3
  %.not = icmp eq ptr %0, null
  %spec.store.select = select i1 %.not, ptr @.str.25, ptr %0
  %.not25 = icmp eq ptr %1, null
  %spec.store.select1 = select i1 %.not25, ptr @.str.25, ptr %1
  %7 = tail call i64 @strlen(ptr noundef nonnull dereferenceable(1) %spec.store.select) #24
  %8 = tail call i64 @strlen(ptr noundef nonnull dereferenceable(1) %spec.store.select1) #24
  %9 = icmp ugt i64 %7, 400
  %or.cond = and i1 %4, %9
  br i1 %or.cond, label %10, label %12

10:                                               ; preds = %6
  %11 = tail call i64 (ptr, i64, ptr, ...) @zend_spprintf(ptr noundef nonnull %2, i64 noundef 0, ptr noundef nonnull @.str.26, i64 noundef %7) #23
  br label %23

12:                                               ; preds = %6
  %13 = icmp ugt i64 %8, 400
  %or.cond4 = and i1 %4, %13
  br i1 %or.cond4, label %14, label %16

14:                                               ; preds = %12
  %15 = tail call i64 (ptr, i64, ptr, ...) @zend_spprintf(ptr noundef nonnull %2, i64 noundef 0, ptr noundef nonnull @.str.27, i64 noundef %8) #23
  br label %23

16:                                               ; preds = %12
  %17 = trunc i64 %7 to i32
  %18 = trunc i64 %8 to i32
  %19 = add i32 %17, 6625
  %20 = add i32 %19, %18
  %21 = sext i32 %20 to i64
  %22 = tail call ptr (i64, ptr, ...) @zend_strpprintf(i64 noundef %21, ptr noundef nonnull @.str.188, ptr noundef nonnull @phar_get_stub.newstub0, ptr noundef nonnull %spec.store.select1, ptr noundef nonnull @phar_get_stub.newstub1_0, ptr noundef nonnull @phar_get_stub.newstub1_1, ptr noundef nonnull %spec.store.select, ptr noundef nonnull @phar_get_stub.newstub2, i32 noundef %20, ptr noundef nonnull @phar_get_stub.newstub3_0, ptr noundef nonnull @phar_get_stub.newstub3_1) #23
  br label %23

23:                                               ; preds = %16, %14, %10
  %.0 = phi ptr [ null, %10 ], [ null, %14 ], [ %22, %16 ]
  ret ptr %.0
}